; Function Attrs: mustprogress nofree norecurse nosync nounwind willreturn memory(argmem: write) uwtable
define void @_ZN6icu_7716CollationWeights15initForTertiaryEv(ptr noundef nonnull writeonly align 4 captures(none) dereferenceable(164) initializes((0, 4), (8, 24), (28, 44)) %0) local_unnamed_addr #2 align 2 {
  store i32 3, ptr %0, align 4, !tbaa !12
  %2 = getelementptr inbounds nuw i8, ptr %0, i64 8
  store i32 0, ptr %2, align 4, !tbaa !9
  %3 = getelementptr inbounds nuw i8, ptr %0, i64 28
  store i32 0, ptr %3, align 4, !tbaa !9
  %4 = getelementptr inbounds nuw i8, ptr %0, i64 12
  store i32 0, ptr %4, align 4, !tbaa !9
  %5 = getelementptr inbounds nuw i8, ptr %0, i64 32
  store i32 0, ptr %5, align 4, !tbaa !9
  %6 = getelementptr inbounds nuw i8, ptr %0, i64 16
  store i32 2, ptr %6, align 4, !tbaa !9
  %7 = getelementptr inbounds nuw i8, ptr %0, i64 36
  store i32 63, ptr %7, align 4, !tbaa !9
  %8 = getelementptr inbounds nuw i8, ptr %0, i64 20
  store i32 2, ptr %8, align 4, !tbaa !9
  %9 = getelementptr inbounds nuw i8, ptr %0, i64 40
  store i32 63, ptr %9, align 4, !tbaa !9
  ret void
}